target datalayout = "e-m:e-p270:32:32-p271:32:32-p272:64:64-i64:64-i128:128-f80:128-n8:16:32:64-S128"
target triple = "x86_64-pc-linux-gnu"

%struct.PQExpBufferData = type { ptr, i64, i64 }
%struct.__va_list_tag = type { i32, i32, ptr, ptr }

; Function Attrs: nounwind uwtable
define void @libpq_append_error(ptr noundef %0, ptr noundef %1, ...) #0 {
  %3 = alloca ptr, align 8
  %4 = alloca ptr, align 8
  %5 = alloca i32, align 4
  %6 = alloca i8, align 1
  %7 = alloca [1 x %struct.__va_list_tag], align 16
  %8 = alloca i32, align 4
  store ptr %0, ptr %3, align 8
  store ptr %1, ptr %4, align 8
  call void @llvm.lifetime.start.p0(i64 4, ptr %5) #10
  %9 = call ptr @__errno_location() #13
  %10 = load i32, ptr %9, align 4
  store i32 %10, ptr %5, align 4
  call void @llvm.lifetime.start.p0(i64 1, ptr %6) #10
  call void @llvm.lifetime.start.p0(i64 24, ptr %7) #10
  %11 = load ptr, ptr %3, align 8
  %12 = icmp eq ptr %11, null
  br i1 %12, label %18, label %13

13:                                               ; preds = %2
  %14 = load ptr, ptr %3, align 8
  %15 = getelementptr inbounds nuw %struct.PQExpBufferData, ptr %14, i32 0, i32 2
  %16 = load i64, ptr %15, align 8
  %17 = icmp eq i64 %16, 0
  br i1 %17, label %18, label %19

18:                                               ; preds = %13, %2
  store i32 1, ptr %8, align 4
  br label %36

19:                                               ; preds = %13
  br label %20

20:                                               ; preds = %30, %19
  %21 = load i32, ptr %5, align 4
  %22 = call ptr @__errno_location() #13
  store i32 %21, ptr %22, align 4
  %23 = getelementptr inbounds [1 x %struct.__va_list_tag], ptr %7, i64 0, i64 0
  call void @llvm.va_start.p0(ptr %23)
  %24 = load ptr, ptr %3, align 8
  %25 = load ptr, ptr %4, align 8
  %26 = getelementptr inbounds [1 x %struct.__va_list_tag], ptr %7, i64 0, i64 0
  %27 = call zeroext i1 @appendPQExpBufferVA(ptr noundef %24, ptr noundef %25, ptr noundef %26)
  %28 = zext i1 %27 to i8
  store i8 %28, ptr %6, align 1
  %29 = getelementptr inbounds [1 x %struct.__va_list_tag], ptr %7, i64 0, i64 0
  call void @llvm.va_end.p0(ptr %29)
  br label %30

30:                                               ; preds = %20
  %31 = load i8, ptr %6, align 1, !range !5, !noundef !6
  %32 = trunc i8 %31 to i1
  %33 = xor i1 %32, true
  br i1 %33, label %20, label %34, !llvm.loop !14

34:                                               ; preds = %30
  %35 = load ptr, ptr %3, align 8
  call void @appendPQExpBufferChar(ptr noundef %35, i8 noundef signext 10)
  store i32 0, ptr %8, align 4
  br label %36

36:                                               ; preds = %34, %18
  call void @llvm.lifetime.end.p0(i64 24, ptr %7) #10
  call void @llvm.lifetime.end.p0(i64 1, ptr %6) #10
  call void @llvm.lifetime.end.p0(i64 4, ptr %5) #10
  %37 = load i32, ptr %8, align 4
  switch i32 %37, label %39 [
    i32 0, label %38
    i32 1, label %38
  ]

38:                                               ; preds = %36, %36
  ret void

39:                                               ; preds = %36
  unreachable
}