; Function Attrs: nounwind uwtable
define void @libpq_append_error(ptr noundef %0, ptr noundef %1, ...) local_unnamed_addr #2 {
  %3 = alloca [1 x %struct.__va_list_tag], align 16
  %4 = tail call ptr @__errno_location() #21
  %5 = load i32, ptr %4, align 4
  call void @llvm.lifetime.start.p0(i64 24, ptr nonnull %3) #19
  %6 = icmp eq ptr %0, null
  br i1 %6, label %13, label %7

7:                                                ; preds = %2
  %8 = getelementptr inbounds nuw i8, ptr %0, i64 16
  %9 = load i64, ptr %8, align 8
  %10 = icmp eq i64 %9, 0
  br i1 %10, label %13, label %.preheader

.preheader:                                       ; preds = %7, %.preheader
  store i32 %5, ptr %4, align 4
  call void @llvm.va_start.p0(ptr nonnull %3)
  %11 = call zeroext i1 @appendPQExpBufferVA(ptr noundef nonnull %0, ptr noundef %1, ptr noundef nonnull %3) #19
  call void @llvm.va_end.p0(ptr nonnull %3)
  br i1 %11, label %12, label %.preheader, !llvm.loop !14

12:                                               ; preds = %.preheader
  call void @appendPQExpBufferChar(ptr noundef nonnull %0, i8 noundef signext 10) #19
  br label %13

13:                                               ; preds = %2, %7, %12
  call void @llvm.lifetime.end.p0(i64 24, ptr nonnull %3) #19
  ret void
}